target datalayout = "e-m:e-p270:32:32-p271:32:32-p272:64:64-i64:64-i128:128-f80:128-n8:16:32:64-S128"
target triple = "x86_64-pc-linux-gnu"

%struct.lv_style_t = type { ptr, i32, i8 }
%union.lv_style_value_t = type { ptr }

@style_title = internal global %struct.lv_style_t zeroinitializer, align 8
@create_chart_with_scales.col_dsc = internal constant [3 x i32] [i32 40, i32 536870812, i32 536870911], align 4
@create_chart_with_scales.row_dsc = internal constant [4 x i32] [i32 536870810, i32 536870812, i32 40, i32 536870911], align 16

; Function Attrs: inlinehint nounwind uwtable
define internal void @lv_obj_set_style_pad_ver(ptr noundef %0, i32 noundef %1, i32 noundef %2) #4 {
  %4 = alloca ptr, align 8
  %5 = alloca i32, align 4
  %6 = alloca i32, align 4
  store ptr %0, ptr %4, align 8, !tbaa !7
  store i32 %1, ptr %5, align 4, !tbaa !3
  store i32 %2, ptr %6, align 4, !tbaa !3
  %7 = load ptr, ptr %4, align 8, !tbaa !7
  %8 = load i32, ptr %5, align 4, !tbaa !3
  %9 = load i32, ptr %6, align 4, !tbaa !3
  call void @lv_obj_set_style_pad_top(ptr noundef %7, i32 noundef %8, i32 noundef %9)
  %10 = load ptr, ptr %4, align 8, !tbaa !7
  %11 = load i32, ptr %5, align 4, !tbaa !3
  %12 = load i32, ptr %6, align 4, !tbaa !3
  call void @lv_obj_set_style_pad_bottom(ptr noundef %10, i32 noundef %11, i32 noundef %12)
  ret void
}

; Function Attrs: inlinehint nounwind uwtable
define internal i32 @lv_obj_get_style_pad_top(ptr noundef %0, i32 noundef %1) #4 {
  %3 = alloca ptr, align 8
  %4 = alloca i32, align 4
  %5 = alloca %union.lv_style_value_t, align 8
  store ptr %0, ptr %3, align 8, !tbaa !7
  store i32 %1, ptr %4, align 4, !tbaa !3
  call void @llvm.lifetime.start.p0(i64 8, ptr %5) #5
  %6 = load ptr, ptr %3, align 8, !tbaa !7
  %7 = load i32, ptr %4, align 4, !tbaa !3
  %8 = call ptr @lv_obj_get_style_prop(ptr noundef %6, i32 noundef %7, i8 noundef zeroext 16)
  %9 = getelementptr inbounds nuw %union.lv_style_value_t, ptr %5, i32 0, i32 0
  store ptr %8, ptr %9, align 8
  %10 = load i32, ptr %5, align 8, !tbaa !28
  call void @llvm.lifetime.end.p0(i64 8, ptr %5) #5
  ret i32 %10
}

; Function Attrs: inlinehint nounwind uwtable
define internal void @lv_obj_set_style_pad_hor(ptr noundef %0, i32 noundef %1, i32 noundef %2) #4 {
  %4 = alloca ptr, align 8
  %5 = alloca i32, align 4
  %6 = alloca i32, align 4
  store ptr %0, ptr %4, align 8, !tbaa !7
  store i32 %1, ptr %5, align 4, !tbaa !3
  store i32 %2, ptr %6, align 4, !tbaa !3
  %7 = load ptr, ptr %4, align 8, !tbaa !7
  %8 = load i32, ptr %5, align 4, !tbaa !3
  %9 = load i32, ptr %6, align 4, !tbaa !3
  call void @lv_obj_set_style_pad_left(ptr noundef %7, i32 noundef %8, i32 noundef %9)
  %10 = load ptr, ptr %4, align 8, !tbaa !7
  %11 = load i32, ptr %5, align 4, !tbaa !3
  %12 = load i32, ptr %6, align 4, !tbaa !3
  call void @lv_obj_set_style_pad_right(ptr noundef %10, i32 noundef %11, i32 noundef %12)
  ret void
}

; Function Attrs: inlinehint nounwind uwtable
define internal i32 @lv_obj_get_style_pad_left(ptr noundef %0, i32 noundef %1) #4 {
  %3 = alloca ptr, align 8
  %4 = alloca i32, align 4
  %5 = alloca %union.lv_style_value_t, align 8
  store ptr %0, ptr %3, align 8, !tbaa !7
  store i32 %1, ptr %4, align 4, !tbaa !3
  call void @llvm.lifetime.start.p0(i64 8, ptr %5) #5
  %6 = load ptr, ptr %3, align 8, !tbaa !7
  %7 = load i32, ptr %4, align 4, !tbaa !3
  %8 = call ptr @lv_obj_get_style_prop(ptr noundef %6, i32 noundef %7, i8 noundef zeroext 18)
  %9 = getelementptr inbounds nuw %union.lv_style_value_t, ptr %5, i32 0, i32 0
  store ptr %8, ptr %9, align 8
  %10 = load i32, ptr %5, align 8, !tbaa !28
  call void @llvm.lifetime.end.p0(i64 8, ptr %5) #5
  ret i32 %10
}

; Function Attrs: nounwind uwtable
define internal ptr @create_chart_with_scales(ptr noundef %0, ptr noundef %1, ptr noundef %2) #0 {
  %4 = alloca ptr, align 8
  %5 = alloca ptr, align 8
  %6 = alloca ptr, align 8
  %7 = alloca ptr, align 8
  %8 = alloca ptr, align 8
  %9 = alloca ptr, align 8
  %10 = alloca ptr, align 8
  %11 = alloca ptr, align 8
  store ptr %0, ptr %4, align 8, !tbaa !7
  store ptr %1, ptr %5, align 8, !tbaa !7
  store ptr %2, ptr %6, align 8, !tbaa !7
  %12 = load ptr, ptr %4, align 8, !tbaa !7
  call void @lv_obj_set_grid_dsc_array(ptr noundef %12, ptr noundef @create_chart_with_scales.col_dsc, ptr noundef @create_chart_with_scales.row_dsc)
  %13 = load ptr, ptr %4, align 8, !tbaa !7
  call void @lv_obj_set_style_pad_column(ptr noundef %13, i32 noundef 0, i32 noundef 0)
  %14 = load ptr, ptr %4, align 8, !tbaa !7
  call void @lv_obj_set_style_pad_row(ptr noundef %14, i32 noundef 0, i32 noundef 0)
  call void @llvm.lifetime.start.p0(i64 8, ptr %7) #5
  %15 = load ptr, ptr %4, align 8, !tbaa !7
  %16 = call ptr @lv_label_create(ptr noundef %15)
  store ptr %16, ptr %7, align 8, !tbaa !7
  %17 = load ptr, ptr %7, align 8, !tbaa !7
  %18 = load ptr, ptr %5, align 8, !tbaa !7
  call void @lv_label_set_text(ptr noundef %17, ptr noundef %18)
  %19 = load ptr, ptr %7, align 8, !tbaa !7
  call void @lv_obj_add_style(ptr noundef %19, ptr noundef @style_title, i32 noundef 0)
  %20 = load ptr, ptr %7, align 8, !tbaa !7
  call void @lv_obj_set_grid_cell(ptr noundef %20, i32 noundef 0, i32 noundef 0, i32 noundef 1, i32 noundef 3, i32 noundef 0, i32 noundef 1)
  call void @llvm.lifetime.start.p0(i64 8, ptr %8) #5
  %21 = load ptr, ptr %4, align 8, !tbaa !7
  %22 = call ptr @lv_scale_create(ptr noundef %21)
  store ptr %22, ptr %8, align 8, !tbaa !7
  %23 = load ptr, ptr %8, align 8, !tbaa !7
  call void @lv_scale_set_mode(ptr noundef %23, i32 noundef 2)
  %24 = load ptr, ptr %8, align 8, !tbaa !7
  call void @lv_obj_set_grid_cell(ptr noundef %24, i32 noundef 2, i32 noundef 0, i32 noundef 1, i32 noundef 3, i32 noundef 1, i32 noundef 1)
  %25 = load ptr, ptr %8, align 8, !tbaa !7
  call void @lv_scale_set_total_tick_count(ptr noundef %25, i32 noundef 11)
  %26 = load ptr, ptr %8, align 8, !tbaa !7
  call void @lv_scale_set_major_tick_every(ptr noundef %26, i32 noundef 2)
  %27 = load ptr, ptr %8, align 8, !tbaa !7
  call void @lv_scale_set_range(ptr noundef %27, i32 noundef 0, i32 noundef 100)
  call void @llvm.lifetime.start.p0(i64 8, ptr %9) #5
  %28 = load ptr, ptr %4, align 8, !tbaa !7
  %29 = call ptr @lv_obj_create(ptr noundef %28)
  store ptr %29, ptr %9, align 8, !tbaa !7
  %30 = load ptr, ptr %9, align 8, !tbaa !7
  call void @lv_obj_remove_style(ptr noundef %30, ptr noundef null, i32 noundef 0)
  %31 = load ptr, ptr %9, align 8, !tbaa !7
  call void @lv_obj_set_grid_dsc_array(ptr noundef %31, ptr noundef null, ptr noundef null)
  %32 = load ptr, ptr %9, align 8, !tbaa !7
  call void @lv_obj_set_grid_cell(ptr noundef %32, i32 noundef 3, i32 noundef 1, i32 noundef 1, i32 noundef 3, i32 noundef 1, i32 noundef 2)
  %33 = load ptr, ptr %9, align 8, !tbaa !7
  call void @lv_obj_set_scroll_dir(ptr noundef %33, i32 noundef 3)
  call void @llvm.lifetime.start.p0(i64 8, ptr %10) #5
  %34 = load ptr, ptr %9, align 8, !tbaa !7
  %35 = call ptr @lv_chart_create(ptr noundef %34)
  store ptr %35, ptr %10, align 8, !tbaa !7
  %36 = call ptr @lv_group_get_default()
  %37 = load ptr, ptr %10, align 8, !tbaa !7
  call void @lv_group_add_obj(ptr noundef %36, ptr noundef %37)
  %38 = load ptr, ptr %10, align 8, !tbaa !7
  call void @lv_obj_add_flag(ptr noundef %38, i32 noundef 525312)
  %39 = load ptr, ptr %10, align 8, !tbaa !7
  call void @lv_chart_set_div_line_count(ptr noundef %39, i8 noundef zeroext 0, i8 noundef zeroext 12)
  %40 = load ptr, ptr %10, align 8, !tbaa !7
  call void @lv_chart_set_point_count(ptr noundef %40, i32 noundef 12)
  %41 = load ptr, ptr %10, align 8, !tbaa !7
  call void @lv_obj_set_grid_cell(ptr noundef %41, i32 noundef 0, i32 noundef 0, i32 noundef 1, i32 noundef 3, i32 noundef 0, i32 noundef 1)
  %42 = load ptr, ptr %10, align 8, !tbaa !7
  call void @lv_obj_set_style_border_width(ptr noundef %42, i32 noundef 0, i32 noundef 0)
  %43 = load ptr, ptr %10, align 8, !tbaa !7
  %44 = call ptr @lv_obj_add_event_cb(ptr noundef %43, ptr noundef @chart_event_cb, i32 noundef 0, ptr noundef null)
  %45 = load ptr, ptr %10, align 8, !tbaa !7
  %46 = call i32 @lv_pct(i32 noundef 200)
  call void @lv_obj_set_width(ptr noundef %45, i32 noundef %46)
  %47 = load ptr, ptr %10, align 8, !tbaa !7
  call void @lv_obj_set_style_radius(ptr noundef %47, i32 noundef 0, i32 noundef 0)
  call void @llvm.lifetime.start.p0(i64 8, ptr %11) #5
  %48 = load ptr, ptr %9, align 8, !tbaa !7
  %49 = call ptr @lv_scale_create(ptr noundef %48)
  store ptr %49, ptr %11, align 8, !tbaa !7
  %50 = load ptr, ptr %11, align 8, !tbaa !7
  call void @lv_scale_set_mode(ptr noundef %50, i32 noundef 1)
  %51 = load ptr, ptr %11, align 8, !tbaa !7
  call void @lv_obj_set_grid_cell(ptr noundef %51, i32 noundef 0, i32 noundef 0, i32 noundef 1, i32 noundef 0, i32 noundef 1, i32 noundef 1)
  %52 = load ptr, ptr %11, align 8, !tbaa !7
  call void @lv_scale_set_total_tick_count(ptr noundef %52, i32 noundef 12)
  %53 = load ptr, ptr %11, align 8, !tbaa !7
  call void @lv_scale_set_major_tick_every(ptr noundef %53, i32 noundef 1)
  %54 = load ptr, ptr %11, align 8, !tbaa !7
  %55 = load ptr, ptr %6, align 8, !tbaa !7
  call void @lv_scale_set_text_src(ptr noundef %54, ptr noundef %55)
  %56 = load ptr, ptr %11, align 8, !tbaa !7
  %57 = call i32 @lv_pct(i32 noundef 200)
  call void @lv_obj_set_width(ptr noundef %56, i32 noundef %57)
  %58 = load ptr, ptr %11, align 8, !tbaa !7
  call void @lv_obj_set_height(ptr noundef %58, i32 noundef 40)
  %59 = load ptr, ptr %11, align 8, !tbaa !7
  %60 = load ptr, ptr %10, align 8, !tbaa !7
  %61 = call i32 @lv_obj_get_style_pad_left(ptr noundef %60, i32 noundef 0)
  call void @lv_obj_set_style_pad_hor(ptr noundef %59, i32 noundef %61, i32 noundef 0)
  %62 = load ptr, ptr %8, align 8, !tbaa !7
  %63 = load ptr, ptr %10, align 8, !tbaa !7
  %64 = call i32 @lv_obj_get_style_pad_top(ptr noundef %63, i32 noundef 0)
  call void @lv_obj_set_style_pad_ver(ptr noundef %62, i32 noundef %64, i32 noundef 0)
  %65 = load ptr, ptr %10, align 8, !tbaa !7
  call void @llvm.lifetime.end.p0(i64 8, ptr %11) #5
  call void @llvm.lifetime.end.p0(i64 8, ptr %10) #5
  call void @llvm.lifetime.end.p0(i64 8, ptr %9) #5
  call void @llvm.lifetime.end.p0(i64 8, ptr %8) #5
  call void @llvm.lifetime.end.p0(i64 8, ptr %7) #5
  ret ptr %65
}