; Function Attrs: nounwind uwtable
define internal fastcc ptr @create_chart_with_scales(ptr noundef %0, ptr noundef %1, ptr noundef %2) unnamed_addr #0 {
  tail call void @lv_obj_set_grid_dsc_array(ptr noundef %0, ptr noundef nonnull @create_chart_with_scales.col_dsc, ptr noundef nonnull @create_chart_with_scales.row_dsc) #5
  tail call void @lv_obj_set_style_pad_column(ptr noundef %0, i32 noundef 0, i32 noundef 0) #5
  tail call void @lv_obj_set_style_pad_row(ptr noundef %0, i32 noundef 0, i32 noundef 0) #5
  %4 = tail call ptr @lv_label_create(ptr noundef %0) #5
  tail call void @lv_label_set_text(ptr noundef %4, ptr noundef %1) #5
  tail call void @lv_obj_add_style(ptr noundef %4, ptr noundef nonnull @style_title, i32 noundef 0) #5
  tail call void @lv_obj_set_grid_cell(ptr noundef %4, i32 noundef 0, i32 noundef 0, i32 noundef 1, i32 noundef 3, i32 noundef 0, i32 noundef 1) #5
  %5 = tail call ptr @lv_scale_create(ptr noundef %0) #5
  tail call void @lv_scale_set_mode(ptr noundef %5, i32 noundef 2) #5
  tail call void @lv_obj_set_grid_cell(ptr noundef %5, i32 noundef 2, i32 noundef 0, i32 noundef 1, i32 noundef 3, i32 noundef 1, i32 noundef 1) #5
  tail call void @lv_scale_set_total_tick_count(ptr noundef %5, i32 noundef 11) #5
  tail call void @lv_scale_set_major_tick_every(ptr noundef %5, i32 noundef 2) #5
  tail call void @lv_scale_set_range(ptr noundef %5, i32 noundef 0, i32 noundef 100) #5
  %6 = tail call ptr @lv_obj_create(ptr noundef %0) #5
  tail call void @lv_obj_remove_style(ptr noundef %6, ptr noundef null, i32 noundef 0) #5
  tail call void @lv_obj_set_grid_dsc_array(ptr noundef %6, ptr noundef null, ptr noundef null) #5
  tail call void @lv_obj_set_grid_cell(ptr noundef %6, i32 noundef 3, i32 noundef 1, i32 noundef 1, i32 noundef 3, i32 noundef 1, i32 noundef 2) #5
  tail call void @lv_obj_set_scroll_dir(ptr noundef %6, i32 noundef 3) #5
  %7 = tail call ptr @lv_chart_create(ptr noundef %6) #5
  %8 = tail call ptr @lv_group_get_default() #5
  tail call void @lv_group_add_obj(ptr noundef %8, ptr noundef %7) #5
  tail call void @lv_obj_add_flag(ptr noundef %7, i32 noundef 525312) #5
  tail call void @lv_chart_set_div_line_count(ptr noundef %7, i8 noundef zeroext 0, i8 noundef zeroext 12) #5
  tail call void @lv_chart_set_point_count(ptr noundef %7, i32 noundef 12) #5
  tail call void @lv_obj_set_grid_cell(ptr noundef %7, i32 noundef 0, i32 noundef 0, i32 noundef 1, i32 noundef 3, i32 noundef 0, i32 noundef 1) #5
  tail call void @lv_obj_set_style_border_width(ptr noundef %7, i32 noundef 0, i32 noundef 0) #5
  %9 = tail call ptr @lv_obj_add_event_cb(ptr noundef %7, ptr noundef nonnull @chart_event_cb, i32 noundef 0, ptr noundef null) #5
  %10 = tail call i32 @lv_pct(i32 noundef 200) #5
  tail call void @lv_obj_set_width(ptr noundef %7, i32 noundef %10) #5
  tail call void @lv_obj_set_style_radius(ptr noundef %7, i32 noundef 0, i32 noundef 0) #5
  %11 = tail call ptr @lv_scale_create(ptr noundef %6) #5
  tail call void @lv_scale_set_mode(ptr noundef %11, i32 noundef 1) #5
  tail call void @lv_obj_set_grid_cell(ptr noundef %11, i32 noundef 0, i32 noundef 0, i32 noundef 1, i32 noundef 0, i32 noundef 1, i32 noundef 1) #5
  tail call void @lv_scale_set_total_tick_count(ptr noundef %11, i32 noundef 12) #5
  tail call void @lv_scale_set_major_tick_every(ptr noundef %11, i32 noundef 1) #5
  tail call void @lv_scale_set_text_src(ptr noundef %11, ptr noundef %2) #5
  %12 = tail call i32 @lv_pct(i32 noundef 200) #5
  tail call void @lv_obj_set_width(ptr noundef %11, i32 noundef %12) #5
  tail call void @lv_obj_set_height(ptr noundef %11, i32 noundef 40) #5
  %13 = tail call ptr @lv_obj_get_style_prop(ptr noundef %7, i32 noundef 0, i8 noundef zeroext 18) #5
  %14 = ptrtoint ptr %13 to i64
  %.sroa.0.0.extract.trunc.i = trunc i64 %14 to i32
  tail call void @lv_obj_set_style_pad_left(ptr noundef %11, i32 noundef %.sroa.0.0.extract.trunc.i, i32 noundef 0) #5
  tail call void @lv_obj_set_style_pad_right(ptr noundef %11, i32 noundef %.sroa.0.0.extract.trunc.i, i32 noundef 0) #5
  %15 = tail call ptr @lv_obj_get_style_prop(ptr noundef %7, i32 noundef 0, i8 noundef zeroext 16) #5
  %16 = ptrtoint ptr %15 to i64
  %.sroa.0.0.extract.trunc.i43 = trunc i64 %16 to i32
  tail call void @lv_obj_set_style_pad_top(ptr noundef %5, i32 noundef %.sroa.0.0.extract.trunc.i43, i32 noundef 0) #5
  tail call void @lv_obj_set_style_pad_bottom(ptr noundef %5, i32 noundef %.sroa.0.0.extract.trunc.i43, i32 noundef 0) #5
  ret ptr %7
}